; ModuleID = '56/438.c'
source_filename = "56/438.c"
target datalayout = "e-m:e-p270:32:32-p271:32:32-p272:64:64-i64:64-f80:128-n8:16:32:64-S128"
target triple = "x86_64-pc-linux-gnu"

@.str = private unnamed_addr constant [3 x i8] c"%d\00", align 1
@.str.1 = private unnamed_addr constant [11 x i8] c"%d%d%d%d%d\00", align 1
@.str.2 = private unnamed_addr constant [9 x i8] c"%d%d%d%d\00", align 1
@.str.3 = private unnamed_addr constant [7 x i8] c"%d%d%d\00", align 1
@.str.4 = private unnamed_addr constant [5 x i8] c"%d%d\00", align 1

; Function Attrs: noinline nounwind uwtable
define dso_local i32 @main(i32 %0, i8** %1) #0 {
  %3 = alloca i32, align 4
  %4 = alloca i32, align 4
  %5 = alloca i8**, align 8
  %6 = alloca i32, align 4
  %7 = alloca i32, align 4
  %8 = alloca i32, align 4
  %9 = alloca i32, align 4
  %10 = alloca i32, align 4
  %11 = alloca i32, align 4
  store i32 0, i32* %3, align 4
  store i32 %0, i32* %4, align 4
  store i8** %1, i8*** %5, align 8
  %12 = call i32 (i8*, ...) @__isoc99_scanf(i8* getelementptr inbounds ([3 x i8], [3 x i8]* @.str, i64 0, i64 0), i32* %6)
  %13 = load i32, i32* %6, align 4
  %14 = sdiv i32 %13, 10000
  store i32 %14, i32* %11, align 4
  %15 = load i32, i32* %6, align 4
  %16 = load i32, i32* %11, align 4
  %17 = mul nsw i32 %16, 10000
  %18 = sub nsw i32 %15, %17
  %19 = sdiv i32 %18, 1000
  store i32 %19, i32* %10, align 4
  %20 = load i32, i32* %6, align 4
  %21 = load i32, i32* %11, align 4
  %22 = mul nsw i32 %21, 10000
  %23 = sub nsw i32 %20, %22
  %24 = load i32, i32* %10, align 4
  %25 = mul nsw i32 %24, 1000
  %26 = sub nsw i32 %23, %25
  %27 = sdiv i32 %26, 100
  store i32 %27, i32* %9, align 4
  %28 = load i32, i32* %6, align 4
  %29 = load i32, i32* %11, align 4
  %30 = mul nsw i32 %29, 10000
  %31 = sub nsw i32 %28, %30
  %32 = load i32, i32* %10, align 4
  %33 = mul nsw i32 %32, 1000
  %34 = sub nsw i32 %31, %33
  %35 = load i32, i32* %9, align 4
  %36 = mul nsw i32 %35, 100
  %37 = sub nsw i32 %34, %36
  %38 = sdiv i32 %37, 10
  store i32 %38, i32* %8, align 4
  %39 = load i32, i32* %6, align 4
  %40 = load i32, i32* %11, align 4
  %41 = mul nsw i32 %40, 10000
  %42 = sub nsw i32 %39, %41
  %43 = load i32, i32* %10, align 4
  %44 = mul nsw i32 %43, 1000
  %45 = sub nsw i32 %42, %44
  %46 = load i32, i32* %9, align 4
  %47 = mul nsw i32 %46, 100
  %48 = sub nsw i32 %45, %47
  %49 = load i32, i32* %8, align 4
  %50 = mul nsw i32 %49, 10
  %51 = sub nsw i32 %48, %50
  store i32 %51, i32* %7, align 4
  %52 = load i32, i32* %11, align 4
  %53 = icmp ne i32 %52, 0
  br i1 %53, label %54, label %73

54:                                               ; preds = %2
  %55 = load i32, i32* %10, align 4
  %56 = icmp ne i32 %55, 0
  br i1 %56, label %57, label %73

57:                                               ; preds = %54
  %58 = load i32, i32* %9, align 4
  %59 = icmp ne i32 %58, 0
  br i1 %59, label %60, label %73

60:                                               ; preds = %57
  %61 = load i32, i32* %8, align 4
  %62 = icmp ne i32 %61, 0
  br i1 %62, label %63, label %73

63:                                               ; preds = %60
  %64 = load i32, i32* %7, align 4
  %65 = icmp ne i32 %64, 0
  br i1 %65, label %66, label %73

66:                                               ; preds = %63
  %67 = load i32, i32* %7, align 4
  %68 = load i32, i32* %8, align 4
  %69 = load i32, i32* %9, align 4
  %70 = load i32, i32* %10, align 4
  %71 = load i32, i32* %11, align 4
  %72 = call i32 (i8*, ...) @printf(i8* getelementptr inbounds ([11 x i8], [11 x i8]* @.str.1, i64 0, i64 0), i32 %67, i32 %68, i32 %69, i32 %70, i32 %71)
  br label %73

73:                                               ; preds = %66, %63, %60, %57, %54, %2
  %74 = load i32, i32* %11, align 4
  %75 = icmp eq i32 %74, 0
  br i1 %75, label %76, label %94

76:                                               ; preds = %73
  %77 = load i32, i32* %10, align 4
  %78 = icmp ne i32 %77, 0
  br i1 %78, label %79, label %94

79:                                               ; preds = %76
  %80 = load i32, i32* %9, align 4
  %81 = icmp ne i32 %80, 0
  br i1 %81, label %82, label %94

82:                                               ; preds = %79
  %83 = load i32, i32* %8, align 4
  %84 = icmp ne i32 %83, 0
  br i1 %84, label %85, label %94

85:                                               ; preds = %82
  %86 = load i32, i32* %7, align 4
  %87 = icmp ne i32 %86, 0
  br i1 %87, label %88, label %94

88:                                               ; preds = %85
  %89 = load i32, i32* %7, align 4
  %90 = load i32, i32* %8, align 4
  %91 = load i32, i32* %9, align 4
  %92 = load i32, i32* %10, align 4
  %93 = call i32 (i8*, ...) @printf(i8* getelementptr inbounds ([9 x i8], [9 x i8]* @.str.2, i64 0, i64 0), i32 %89, i32 %90, i32 %91, i32 %92)
  br label %154

94:                                               ; preds = %85, %82, %79, %76, %73
  %95 = load i32, i32* %11, align 4
  %96 = icmp eq i32 %95, 0
  br i1 %96, label %97, label %114

97:                                               ; preds = %94
  %98 = load i32, i32* %10, align 4
  %99 = icmp eq i32 %98, 0
  br i1 %99, label %100, label %114

100:                                              ; preds = %97
  %101 = load i32, i32* %9, align 4
  %102 = icmp ne i32 %101, 0
  br i1 %102, label %103, label %114

103:                                              ; preds = %100
  %104 = load i32, i32* %8, align 4
  %105 = icmp ne i32 %104, 0
  br i1 %105, label %106, label %114

106:                                              ; preds = %103
  %107 = load i32, i32* %7, align 4
  %108 = icmp ne i32 %107, 0
  br i1 %108, label %109, label %114

109:                                              ; preds = %106
  %110 = load i32, i32* %7, align 4
  %111 = load i32, i32* %8, align 4
  %112 = load i32, i32* %9, align 4
  %113 = call i32 (i8*, ...) @printf(i8* getelementptr inbounds ([7 x i8], [7 x i8]* @.str.3, i64 0, i64 0), i32 %110, i32 %111, i32 %112)
  br label %153

114:                                              ; preds = %106, %103, %100, %97, %94
  %115 = load i32, i32* %11, align 4
  %116 = icmp eq i32 %115, 0
  br i1 %116, label %117, label %133

117:                                              ; preds = %114
  %118 = load i32, i32* %10, align 4
  %119 = icmp eq i32 %118, 0
  br i1 %119, label %120, label %133

120:                                              ; preds = %117
  %121 = load i32, i32* %9, align 4
  %122 = icmp eq i32 %121, 0
  br i1 %122, label %123, label %133

123:                                              ; preds = %120
  %124 = load i32, i32* %8, align 4
  %125 = icmp ne i32 %124, 0
  br i1 %125, label %126, label %133

126:                                              ; preds = %123
  %127 = load i32, i32* %7, align 4
  %128 = icmp ne i32 %127, 0
  br i1 %128, label %129, label %133

129:                                              ; preds = %126
  %130 = load i32, i32* %7, align 4
  %131 = load i32, i32* %8, align 4
  %132 = call i32 (i8*, ...) @printf(i8* getelementptr inbounds ([5 x i8], [5 x i8]* @.str.4, i64 0, i64 0), i32 %130, i32 %131)
  br label %152

133:                                              ; preds = %126, %123, %120, %117, %114
  %134 = load i32, i32* %11, align 4
  %135 = icmp eq i32 %134, 0
  br i1 %135, label %136, label %151

136:                                              ; preds = %133
  %137 = load i32, i32* %10, align 4
  %138 = icmp eq i32 %137, 0
  br i1 %138, label %139, label %151

139:                                              ; preds = %136
  %140 = load i32, i32* %9, align 4
  %141 = icmp eq i32 %140, 0
  br i1 %141, label %142, label %151

142:                                              ; preds = %139
  %143 = load i32, i32* %8, align 4
  %144 = icmp eq i32 %143, 0
  br i1 %144, label %145, label %151

145:                                              ; preds = %142
  %146 = load i32, i32* %7, align 4
  %147 = icmp ne i32 %146, 0
  br i1 %147, label %148, label %151

148:                                              ; preds = %145
  %149 = load i32, i32* %7, align 4
  %150 = call i32 (i8*, ...) @printf(i8* getelementptr inbounds ([3 x i8], [3 x i8]* @.str, i64 0, i64 0), i32 %149)
  br label %151

151:                                              ; preds = %148, %145, %142, %139, %136, %133
  br label %152

152:                                              ; preds = %151, %129
  br label %153

153:                                              ; preds = %152, %109
  br label %154

154:                                              ; preds = %153, %88
  ret i32 0
}

declare dso_local i32 @__isoc99_scanf(i8*, ...) #1

declare dso_local i32 @printf(i8*, ...) #1


!llvm.module.flags = !{!0}
!llvm.ident = !{!1}

!0 = !{i32 1, !"wchar_size", i32 4}
!1 = !{!"clang version 10.0.0-4ubuntu1 "}
