; ModuleID = 'source-C-CXX/55/438.c'
source_filename = "source-C-CXX/55/438.c"
target datalayout = "e-m:e-p270:32:32-p271:32:32-p272:64:64-i64:64-f80:128-n8:16:32:64-S128"
target triple = "x86_64-pc-linux-gnu"

@.str = private unnamed_addr constant [3 x i8] c"%d\00", align 1
@.str.1 = private unnamed_addr constant [11 x i8] c"%d%d%d%d%d\00", align 1
@.str.2 = private unnamed_addr constant [9 x i8] c"%d%d%d%d\00", align 1
@.str.3 = private unnamed_addr constant [7 x i8] c"%d%d%d\00", align 1
@.str.4 = private unnamed_addr constant [5 x i8] c"%d%d\00", align 1

; Function Attrs: nofree nounwind sspstrong uwtable
define dso_local i32 @main(i32 %0, i8** nocapture readnone %1) local_unnamed_addr #0 {
  %3 = alloca i32, align 4
  %4 = bitcast i32* %3 to i8*
  call void @llvm.lifetime.start.p0i8(i64 4, i8* nonnull %4) #3
  %5 = call i32 (i8*, ...) @__isoc99_scanf(i8* getelementptr inbounds ([3 x i8], [3 x i8]* @.str, i64 0, i64 0), i32* nonnull %3)
  %6 = load i32, i32* %3, align 4, !tbaa !5
  %7 = sdiv i32 %6, 10000
  %8 = mul nsw i32 %7, -10000
  %9 = add i32 %8, %6
  %10 = sdiv i32 %9, 1000
  %11 = mul nsw i32 %10, -1000
  %12 = add i32 %11, %9
  %13 = sdiv i32 %12, 100
  %14 = mul nsw i32 %13, -100
  %15 = add i32 %14, %12
  %16 = sdiv i32 %15, 10
  %17 = mul nsw i32 %16, -10
  %18 = add i32 %17, %15
  %19 = add i32 %6, 9999
  %20 = icmp ugt i32 %19, 19998
  %21 = add i32 %9, 999
  %22 = icmp ugt i32 %21, 1998
  %23 = select i1 %20, i1 %22, i1 false
  %24 = add i32 %12, 99
  %25 = icmp ugt i32 %24, 198
  %26 = select i1 %23, i1 %25, i1 false
  %27 = add i32 %15, 9
  %28 = icmp ugt i32 %27, 18
  %29 = select i1 %26, i1 %28, i1 false
  %30 = icmp ne i32 %18, 0
  %31 = select i1 %29, i1 %30, i1 false
  br i1 %31, label %32, label %34

32:                                               ; preds = %2
  %33 = call i32 (i8*, ...) @printf(i8* nonnull dereferenceable(1) getelementptr inbounds ([11 x i8], [11 x i8]* @.str.1, i64 0, i64 0), i32 %18, i32 %16, i32 %13, i32 %10, i32 %7)
  br label %63

34:                                               ; preds = %2
  %35 = icmp ult i32 %19, 19999
  %36 = select i1 %35, i1 %22, i1 false
  %37 = select i1 %36, i1 %25, i1 false
  %38 = select i1 %37, i1 %28, i1 false
  %39 = select i1 %38, i1 %30, i1 false
  br i1 %39, label %40, label %42

40:                                               ; preds = %34
  %41 = call i32 (i8*, ...) @printf(i8* nonnull dereferenceable(1) getelementptr inbounds ([9 x i8], [9 x i8]* @.str.2, i64 0, i64 0), i32 %18, i32 %16, i32 %13, i32 %10)
  br label %63

42:                                               ; preds = %34
  %43 = icmp ult i32 %21, 1999
  %44 = select i1 %35, i1 %43, i1 false
  %45 = select i1 %44, i1 %25, i1 false
  %46 = select i1 %45, i1 %28, i1 false
  %47 = select i1 %46, i1 %30, i1 false
  br i1 %47, label %48, label %50

48:                                               ; preds = %42
  %49 = call i32 (i8*, ...) @printf(i8* nonnull dereferenceable(1) getelementptr inbounds ([7 x i8], [7 x i8]* @.str.3, i64 0, i64 0), i32 %18, i32 %16, i32 %13)
  br label %63

50:                                               ; preds = %42
  %51 = icmp ult i32 %24, 199
  %52 = select i1 %44, i1 %51, i1 false
  %53 = select i1 %52, i1 %28, i1 false
  %54 = select i1 %53, i1 %30, i1 false
  br i1 %54, label %55, label %57

55:                                               ; preds = %50
  %56 = call i32 (i8*, ...) @printf(i8* nonnull dereferenceable(1) getelementptr inbounds ([5 x i8], [5 x i8]* @.str.4, i64 0, i64 0), i32 %18, i32 %16)
  br label %63

57:                                               ; preds = %50
  %58 = icmp ult i32 %27, 19
  %59 = select i1 %52, i1 %58, i1 false
  %60 = select i1 %59, i1 %30, i1 false
  br i1 %60, label %61, label %63

61:                                               ; preds = %57
  %62 = call i32 (i8*, ...) @printf(i8* nonnull dereferenceable(1) getelementptr inbounds ([3 x i8], [3 x i8]* @.str, i64 0, i64 0), i32 %18)
  br label %63

63:                                               ; preds = %32, %48, %57, %61, %55, %40
  call void @llvm.lifetime.end.p0i8(i64 4, i8* nonnull %4) #3
  ret i32 0
}

; Function Attrs: argmemonly mustprogress nofree nosync nounwind willreturn
declare void @llvm.lifetime.start.p0i8(i64 immarg, i8* nocapture) #1

; Function Attrs: nofree nounwind
declare noundef i32 @__isoc99_scanf(i8* nocapture noundef readonly, ...) local_unnamed_addr #2

; Function Attrs: nofree nounwind
declare noundef i32 @printf(i8* nocapture noundef readonly, ...) local_unnamed_addr #2

; Function Attrs: argmemonly mustprogress nofree nosync nounwind willreturn
declare void @llvm.lifetime.end.p0i8(i64 immarg, i8* nocapture) #1


!llvm.module.flags = !{!0, !1, !2, !3}
!llvm.ident = !{!4}

!0 = !{i32 1, !"wchar_size", i32 4}
!1 = !{i32 7, !"PIC Level", i32 2}
!2 = !{i32 7, !"PIE Level", i32 2}
!3 = !{i32 7, !"uwtable", i32 1}
!4 = !{!"clang version 13.0.0"}
!5 = !{!6, !6, i64 0}
!6 = !{!"int", !7, i64 0}
!7 = !{!"omnipotent char", !8, i64 0}
!8 = !{!"Simple C/C++ TBAA"}
